(dp0
S'A'
p1
c__builtin__
set
p2
((lp3
S'tags\\A\\pw\\400'
p4
aS'tags\\A\\pw\\300'
p5
aS'tags\\A\\pw\\250'
p6
aS'tags\\A\\eos'
p7
aS'tags\\A\\eos\\5'
p8
aS'tags\\A\\eos\\4'
p9
aS'tags\\A\\kpts\\2x2x2'
p10
aS'tags\\A\\eos\\1'
p11
aS'tags\\A\\kpts\\4x4x4'
p12
aS'tags\\A\\eos\\3'
p13
aS'tags\\A\\eos\\2'
p14
aS'tags\\A\\pw\\350'
p15
aS'tags\\A\\kpts\\8x8x8'
p16
aS'tags\\A\\kpts'
p17
aS'tags\\A'
p18
aS'tags\\A\\pw\\200'
p19
aS'tags\\A\\pw'
p20
atp21
Rp22
sS'1'
p23
g2
((lp24
S'tags\\D\\eos\\1'
p25
aS'tags\\C\\eos\\1'
p26
aS'tags\\B\\eos\\1'
p27
ag11
atp28
Rp29
sS'all'
p30
g2
((lp31
S'tags\\D\\kpts'
p32
ag5
aS'tags\\D\\pw\\200'
p33
ag8
ag9
ag10
ag11
ag13
ag14
aS'tags\\C\\eos'
p34
aS'tags\\D\\eos\\2'
p35
aS'tags\\D\\eos\\3'
p36
aS'tags\\D\\eos\\4'
p37
aS'tags\\D\\eos\\5'
p38
aS'tags\\B\\kpts\\2x2x2'
p39
aS'tags\\C\\kpts\\4x4x4'
p40
aS'tags\\C\\eos\\3'
p41
aS'tags\\C\\eos\\2'
p42
ag26
aS'tags\\C\\kpts\\8x8x8'
p43
ag27
aS'tags\\C\\eos\\5'
p44
aS'tags\\C\\eos\\4'
p45
aS'tags\\B\\kpts'
p46
aS'tags\\D\\pw'
p47
aS'tags\\C\\pw\\200'
p48
aS'tags\\B\\eos\\2'
p49
aS'tags\\B\\eos\\3'
p50
aS'tags'
p51
aS'tags\\B\\kpts\\8x8x8'
p52
ag12
aS'tags\\B\\eos\\4'
p53
aS'tags\\B\\eos\\5'
p54
ag15
aS'tags\\C\\kpts'
p55
aS'tags\\D\\pw\\300'
p56
aS'tags\\B\\kpts\\4x4x4'
p57
aS'tags\\C\\kpts\\2x2x2'
p58
aS'tags\\D\\kpts\\4x4x4'
p59
aS'tags\\D\\pw\\350'
p60
aS'tags\\B\\pw\\250'
p61
ag6
ag7
aS'tags\\D\\kpts\\8x8x8'
p62
aS'tags\\D\\pw\\400'
p63
ag4
aS'tags\\D\\eos'
p64
ag20
aS'tags\\C\\pw\\400'
p65
aS'tags\\D\\kpts\\2x2x2'
p66
aS'tags\\D\\pw\\250'
p67
aS'tags\\B\\pw\\350'
p68
aS'tags\\C'
p69
aS'tags\\C\\pw\\250'
p70
aS'tags\\C\\pw\\350'
p71
aS'tags\\C\\pw'
p72
ag25
aS'tags\\B\\pw\\400'
p73
aS'tags\\B\\pw'
p74
aS'tags\\B\\eos'
p75
ag16
aS'tags\\B\\pw\\300'
p76
ag17
ag18
aS'tags\\C\\pw\\300'
p77
ag19
aS'tags\\B'
p78
aS'tags\\D'
p79
aS'tags\\B\\pw\\200'
p80
atp81
Rp82
sS'B'
p83
g2
((lp84
g57
ag46
ag61
ag76
ag49
ag50
ag27
ag52
ag74
ag53
ag54
ag75
ag39
ag68
ag73
ag78
ag80
atp85
Rp86
sS'250'
p87
g2
((lp88
g61
ag6
ag67
ag70
atp89
Rp90
sS'pw'
p91
g2
((lp92
g5
ag60
ag67
ag48
ag68
ag77
ag15
ag56
ag33
ag61
ag6
ag4
ag65
ag47
ag70
ag71
ag72
ag73
ag74
ag76
ag63
ag20
ag19
ag80
atp93
Rp94
sS'2x2x2'
p95
g2
((lp96
g58
ag10
ag66
ag39
atp97
Rp98
sS'300'
p99
g2
((lp100
g56
ag5
ag77
ag76
atp101
Rp102
sS'C'
p103
g2
((lp104
g58
ag71
ag48
ag72
ag77
ag34
ag65
ag55
ag70
ag40
ag41
ag42
ag69
ag43
ag26
ag44
ag45
atp105
Rp106
sS'400'
p107
g2
((lp108
g73
ag65
ag4
ag63
atp109
Rp110
sS'kpts'
p111
g2
((lp112
g57
ag58
ag46
ag10
ag52
ag12
ag62
ag59
ag16
ag32
ag66
ag55
ag39
ag17
ag40
ag43
atp113
Rp114
sS'8x8x8'
p115
g2
((lp116
g16
ag43
ag52
ag62
atp117
Rp118
sS'eos'
p119
g2
((lp120
g8
ag9
ag11
ag13
ag14
ag25
ag35
ag36
ag37
ag38
ag41
ag42
ag26
ag44
ag45
ag49
ag50
ag27
ag53
ag54
ag7
ag64
ag34
ag75
atp121
Rp122
sS'3'
p123
g2
((lp124
g41
ag50
ag36
ag13
atp125
Rp126
sS'2'
p127
g2
((lp128
g49
ag42
ag35
ag14
atp129
Rp130
sS'5'
p131
g2
((lp132
g8
ag38
ag44
ag54
atp133
Rp134
sS'4'
p135
g2
((lp136
g9
ag37
ag53
ag45
atp137
Rp138
sS'350'
p139
g2
((lp140
g15
ag68
ag71
ag60
atp141
Rp142
sS'200'
p143
g2
((lp144
g33
ag19
ag48
ag80
atp145
Rp146
sS'4x4x4'
p147
g2
((lp148
g57
ag59
ag12
ag40
atp149
Rp150
sS'D'
p151
g2
((lp152
g32
ag33
ag64
ag60
ag59
ag62
ag25
ag35
ag36
ag37
ag38
ag63
ag56
ag66
ag47
ag79
ag67
atp153
Rp154
s.